target datalayout = "e-m:e-p270:32:32-p271:32:32-p272:64:64-i64:64-i128:128-f80:128-n8:16:32:64-S128"
target triple = "x86_64-unknown-linux-gnu"

%"class.sat::literal" = type { i32 }
%class.symbol = type { ptr }
%struct.pair_hash = type { %struct.unsigned_hash }
%struct.unsigned_hash = type { i8 }
%"class.bv::solver" = type { %"class.euf::th_euf_solver.base", %class.svector.3, i32, i32, %class.bv_util, %class.arith_util, %"struct.bv::solver::stats", %"class.bv::ackerman", %class.bit_blaster, %class.union_find, %class.vector.9, %class.svector.1, %class.vector.10, %class.ptr_vector.11, %class.map, %class.vector.15, %class.svector.3, %class.svector.16, %class.svector.1, i32, %"class.sat::literal", %class.ptr_vector, %class.obj_map, %class.obj_map.22, i8, [2 x %class.svector.27] }
%"class.euf::th_euf_solver.base" = type <{ %"class.euf::th_solver", ptr, %class.ptr_vector, %class.svector.1, i32 }>
%"class.euf::th_solver" = type { %"class.sat::extension", %"class.euf::th_model_builder", %"class.euf::th_decompile", %"class.euf::th_internalizer", ptr }
%"class.sat::extension" = type { ptr, i8, i32, %class.symbol, ptr }
%"class.euf::th_model_builder" = type { ptr }
%"class.euf::th_decompile" = type { ptr }
%"class.euf::th_internalizer" = type { ptr, %class.ptr_vector, %class.svector }
%class.svector = type { %class.vector.0 }
%class.vector.0 = type { ptr }
%class.bv_util = type { %class.bv_recognizers, ptr, ptr }
%class.bv_recognizers = type { i32 }
%class.arith_util = type { ptr, ptr }
%"struct.bv::solver::stats" = type { i32, i32, i32, i32, i32, i32, i32, i32 }
%"class.bv::ackerman" = type { ptr, %class.hashtable, ptr, ptr, i32, i32, i32, i32, %class.svector.5 }
%class.hashtable = type { %class.core_hashtable.base, [4 x i8] }
%class.core_hashtable.base = type <{ ptr, i32, i32, i32 }>
%class.svector.5 = type { %class.vector.6 }
%class.vector.6 = type { ptr }
%class.bit_blaster = type { %class.bit_blaster_tpl, %class.bv_util, %class.bool_rewriter }
%class.bit_blaster_tpl = type { %class.bit_blaster_cfg, i64 }
%class.bit_blaster_cfg = type { ptr, ptr, ptr }
%class.bool_rewriter = type { ptr, i8, i8, i8, i8, i8, i8, i32, i8, i32, i32, i8, %class.ptr_vector.7, %class.ptr_vector.7, %class.svector.1, %class.svector.1 }
%class.ptr_vector.7 = type { %class.vector.8 }
%class.vector.8 = type { ptr }
%class.union_find = type { ptr, ptr, %class.svector.1, %class.svector.1, %class.svector.1, %"class.union_find<bv::solver, euf::solver>::mk_var_trail" }
%"class.union_find<bv::solver, euf::solver>::mk_var_trail" = type { %class.trail, ptr }
%class.trail = type { ptr }
%class.vector.9 = type { ptr }
%class.vector.10 = type { ptr }
%class.ptr_vector.11 = type { %class.vector.12 }
%class.vector.12 = type { ptr }
%class.map = type { %class.table2map }
%class.table2map = type { %class.core_hashtable.13 }
%class.core_hashtable.13 = type <{ %"struct.table2map<default_map_entry<std::pair<rational, unsigned int>, int>, pair_hash<obj_hash<rational>, unsigned_hash>, default_eq<std::pair<rational, unsigned int>>>::entry_hash_proc", [7 x i8], ptr, i32, i32, i32, [4 x i8] }>
%"struct.table2map<default_map_entry<std::pair<rational, unsigned int>, int>, pair_hash<obj_hash<rational>, unsigned_hash>, default_eq<std::pair<rational, unsigned int>>>::entry_hash_proc" = type { %struct.pair_hash }
%class.vector.15 = type { ptr }
%class.svector.3 = type { %class.vector.4 }
%class.vector.4 = type { ptr }
%class.svector.16 = type { %class.vector.17 }
%class.vector.17 = type { ptr }
%class.svector.1 = type { %class.vector.2 }
%class.vector.2 = type { ptr }
%class.ptr_vector = type { %class.vector }
%class.vector = type { ptr }
%class.obj_map = type { %class.core_hashtable.18 }
%class.core_hashtable.18 = type <{ ptr, i32, i32, i32, [4 x i8] }>
%class.obj_map.22 = type { %class.core_hashtable.23 }
%class.core_hashtable.23 = type <{ ptr, i32, i32, i32, [4 x i8] }>
%class.svector.27 = type { %class.vector.28 }
%class.vector.28 = type { ptr }
%"class.bv::solver::var_pos_it" = type { ptr }
%"struct.std::pair.239" = type { i32, i32 }
%"struct.bv::solver::atom" = type { i32, ptr, ptr, %class.svector.237, %"class.sat::literal", %"class.sat::literal" }
%class.svector.237 = type { %class.vector.238 }
%class.vector.238 = type { ptr }
%"struct.bv::solver::var_pos_occ" = type { %"struct.std::pair.239", ptr }

; Function Attrs: mustprogress nounwind uwtable
define linkonce_odr hidden noundef zeroext i1 @_ZNK2bv6solver10var_pos_iteqERKS1_(ptr noundef nonnull align 8 dereferenceable(8) %this, ptr noundef nonnull align 8 dereferenceable(8) %other) #4 comdat align 2 {
entry:
  %this.addr = alloca ptr, align 8
  %other.addr = alloca ptr, align 8
  store ptr %this, ptr %this.addr, align 8
  store ptr %other, ptr %other.addr, align 8
  %this1 = load ptr, ptr %this.addr, align 8
  %m_first = getelementptr inbounds %"class.bv::solver::var_pos_it", ptr %this1, i32 0, i32 0
  %0 = load ptr, ptr %m_first, align 8
  %1 = load ptr, ptr %other.addr, align 8
  %m_first2 = getelementptr inbounds %"class.bv::solver::var_pos_it", ptr %1, i32 0, i32 0
  %2 = load ptr, ptr %m_first2, align 8
  %cmp = icmp eq ptr %0, %2
  ret i1 %cmp
}

; Function Attrs: mustprogress nounwind uwtable
define linkonce_odr hidden void @_ZN2bv6solver10var_pos_itC2EPNS0_11var_pos_occE(ptr noundef nonnull align 8 dereferenceable(8) %this, ptr noundef %c) unnamed_addr #4 comdat align 2 {
entry:
  %this.addr = alloca ptr, align 8
  %c.addr = alloca ptr, align 8
  store ptr %this, ptr %this.addr, align 8
  store ptr %c, ptr %c.addr, align 8
  %this1 = load ptr, ptr %this.addr, align 8
  %m_first = getelementptr inbounds %"class.bv::solver::var_pos_it", ptr %this1, i32 0, i32 0
  %0 = load ptr, ptr %c.addr, align 8
  store ptr %0, ptr %m_first, align 8
  ret void
}

; Function Attrs: mustprogress nounwind uwtable
define linkonce_odr hidden noundef nonnull align 8 dereferenceable(8) ptr @_ZN2bv6solver10var_pos_itppEv(ptr noundef nonnull align 8 dereferenceable(8) %this) #4 comdat align 2 {
entry:
  %this.addr = alloca ptr, align 8
  store ptr %this, ptr %this.addr, align 8
  %this1 = load ptr, ptr %this.addr, align 8
  %m_first = getelementptr inbounds %"class.bv::solver::var_pos_it", ptr %this1, i32 0, i32 0
  %0 = load ptr, ptr %m_first, align 8
  %m_next = getelementptr inbounds %"struct.bv::solver::var_pos_occ", ptr %0, i32 0, i32 1
  %1 = load ptr, ptr %m_next, align 8
  %m_first2 = getelementptr inbounds %"class.bv::solver::var_pos_it", ptr %this1, i32 0, i32 0
  store ptr %1, ptr %m_first2, align 8
  ret ptr %this1
}

; Function Attrs: mustprogress nounwind uwtable
define linkonce_odr hidden noundef zeroext i1 @_ZN3sateqERKNS_7literalES2_(ptr noundef nonnull align 4 dereferenceable(4) %l1, ptr noundef nonnull align 4 dereferenceable(4) %l2) #4 comdat {
entry:
  %l1.addr = alloca ptr, align 8
  %l2.addr = alloca ptr, align 8
  store ptr %l1, ptr %l1.addr, align 8
  store ptr %l2, ptr %l2.addr, align 8
  %0 = load ptr, ptr %l1.addr, align 8
  %m_val = getelementptr inbounds %"class.sat::literal", ptr %0, i32 0, i32 0
  %1 = load i32, ptr %m_val, align 4
  %2 = load ptr, ptr %l2.addr, align 8
  %m_val1 = getelementptr inbounds %"class.sat::literal", ptr %2, i32 0, i32 0
  %3 = load i32, ptr %m_val1, align 4
  %cmp = icmp eq i32 %1, %3
  ret i1 %cmp
}

; Function Attrs: mustprogress nounwind uwtable
define linkonce_odr hidden noundef i32 @_ZNK6vectorIN3sat7literalELb0EjE4sizeEv(ptr noundef nonnull align 8 dereferenceable(8) %this) #4 comdat align 2 {
entry:
  %retval = alloca i32, align 4
  %this.addr = alloca ptr, align 8
  store ptr %this, ptr %this.addr, align 8
  %this1 = load ptr, ptr %this.addr, align 8
  %m_data = getelementptr inbounds %class.vector.4, ptr %this1, i32 0, i32 0
  %0 = load ptr, ptr %m_data, align 8
  %cmp = icmp eq ptr %0, null
  br i1 %cmp, label %if.then, label %if.end

if.then:                                          ; preds = %entry
  store i32 0, ptr %retval, align 4
  br label %return

if.end:                                           ; preds = %entry
  %m_data2 = getelementptr inbounds %class.vector.4, ptr %this1, i32 0, i32 0
  %1 = load ptr, ptr %m_data2, align 8
  %arrayidx = getelementptr inbounds i32, ptr %1, i64 -1
  %2 = load i32, ptr %arrayidx, align 4
  store i32 %2, ptr %retval, align 4
  br label %return

return:                                           ; preds = %if.end, %if.then
  %3 = load i32, ptr %retval, align 4
  ret i32 %3
}

; Function Attrs: mustprogress nounwind uwtable
define linkonce_odr hidden i64 @_ZN2bv6solver10var_pos_itdeEv(ptr noundef nonnull align 8 dereferenceable(8) %this) #4 comdat align 2 {
entry:
  %retval = alloca %"struct.std::pair.239", align 4
  %this.addr = alloca ptr, align 8
  store ptr %this, ptr %this.addr, align 8
  %this1 = load ptr, ptr %this.addr, align 8
  %m_first = getelementptr inbounds %"class.bv::solver::var_pos_it", ptr %this1, i32 0, i32 0
  %0 = load ptr, ptr %m_first, align 8
  %m_vp = getelementptr inbounds %"struct.bv::solver::var_pos_occ", ptr %0, i32 0, i32 0
  call void @llvm.memcpy.p0.p0.i64(ptr align 4 %retval, ptr align 8 %m_vp, i64 8, i1 false)
  %1 = load i64, ptr %retval, align 4
  ret i64 %1
}

; Function Attrs: mustprogress uwtable
define linkonce_odr hidden noundef zeroext i1 @_ZNK2bv6solver10var_pos_itneERKS1_(ptr noundef nonnull align 8 dereferenceable(8) %this, ptr noundef nonnull align 8 dereferenceable(8) %other) #5 comdat align 2 {
entry:
  %this.addr = alloca ptr, align 8
  %other.addr = alloca ptr, align 8
  store ptr %this, ptr %this.addr, align 8
  store ptr %other, ptr %other.addr, align 8
  %this1 = load ptr, ptr %this.addr, align 8
  %0 = load ptr, ptr %other.addr, align 8
  %call = call noundef zeroext i1 @_ZNK2bv6solver10var_pos_iteqERKS1_(ptr noundef nonnull align 8 dereferenceable(8) %this1, ptr noundef nonnull align 8 dereferenceable(8) %0)
  %lnot = xor i1 %call, true
  ret i1 %lnot
}

; Function Attrs: mustprogress uwtable
define linkonce_odr hidden ptr @_ZNK2bv6solver4atom3endEv(ptr noundef nonnull align 8 dereferenceable(40) %this) #5 comdat align 2 {
entry:
  %retval = alloca %"class.bv::solver::var_pos_it", align 8
  %this.addr = alloca ptr, align 8
  store ptr %this, ptr %this.addr, align 8
  call void @_ZN2bv6solver10var_pos_itC2EPNS0_11var_pos_occE(ptr noundef nonnull align 8 dereferenceable(8) %retval, ptr noundef null)
  %coerce.dive = getelementptr inbounds %"class.bv::solver::var_pos_it", ptr %retval, i32 0, i32 0
  %0 = load ptr, ptr %coerce.dive, align 8
  ret ptr %0
}

; Function Attrs: mustprogress uwtable
define linkonce_odr hidden ptr @_ZNK2bv6solver4atom5beginEv(ptr noundef nonnull align 8 dereferenceable(40) %this) #5 comdat align 2 {
entry:
  %retval = alloca %"class.bv::solver::var_pos_it", align 8
  %this.addr = alloca ptr, align 8
  store ptr %this, ptr %this.addr, align 8
  %this1 = load ptr, ptr %this.addr, align 8
  %m_occs = getelementptr inbounds %"struct.bv::solver::atom", ptr %this1, i32 0, i32 2
  %0 = load ptr, ptr %m_occs, align 8
  call void @_ZN2bv6solver10var_pos_itC2EPNS0_11var_pos_occE(ptr noundef nonnull align 8 dereferenceable(8) %retval, ptr noundef %0)
  %coerce.dive = getelementptr inbounds %"class.bv::solver::var_pos_it", ptr %retval, i32 0, i32 0
  %1 = load ptr, ptr %coerce.dive, align 8
  ret ptr %1
}

; Function Attrs: mustprogress nounwind uwtable
define linkonce_odr hidden void @_ZN3sat7literal3negEv(ptr noundef nonnull align 4 dereferenceable(4) %this) #4 comdat align 2 {
entry:
  %this.addr = alloca ptr, align 8
  store ptr %this, ptr %this.addr, align 8
  %this1 = load ptr, ptr %this.addr, align 8
  %m_val = getelementptr inbounds %"class.sat::literal", ptr %this1, i32 0, i32 0
  %0 = load i32, ptr %m_val, align 4
  %xor = xor i32 %0, 1
  %m_val2 = getelementptr inbounds %"class.sat::literal", ptr %this1, i32 0, i32 0
  store i32 %xor, ptr %m_val2, align 4
  ret void
}

; Function Attrs: mustprogress nounwind uwtable
define linkonce_odr hidden noundef nonnull align 4 dereferenceable(4) ptr @_ZN6vectorIN3sat7literalELb0EjEixEj(ptr noundef nonnull align 8 dereferenceable(8) %this, i32 noundef %idx) #4 comdat align 2 {
entry:
  %this.addr = alloca ptr, align 8
  %idx.addr = alloca i32, align 4
  store ptr %this, ptr %this.addr, align 8
  store i32 %idx, ptr %idx.addr, align 4
  %this1 = load ptr, ptr %this.addr, align 8
  %m_data = getelementptr inbounds %class.vector.4, ptr %this1, i32 0, i32 0
  %0 = load ptr, ptr %m_data, align 8
  %1 = load i32, ptr %idx.addr, align 4
  %idxprom = zext i32 %1 to i64
  %arrayidx = getelementptr inbounds %"class.sat::literal", ptr %0, i64 %idxprom
  ret ptr %arrayidx
}

; Function Attrs: mustprogress nounwind uwtable
define linkonce_odr hidden noundef nonnull align 8 dereferenceable(8) ptr @_ZN6vectorI7svectorIN3sat7literalEjELb1EjEixEj(ptr noundef nonnull align 8 dereferenceable(8) %this, i32 noundef %idx) #4 comdat align 2 {
entry:
  %this.addr = alloca ptr, align 8
  %idx.addr = alloca i32, align 4
  store ptr %this, ptr %this.addr, align 8
  store i32 %idx, ptr %idx.addr, align 4
  %this1 = load ptr, ptr %this.addr, align 8
  %m_data = getelementptr inbounds %class.vector.9, ptr %this1, i32 0, i32 0
  %0 = load ptr, ptr %m_data, align 8
  %1 = load i32, ptr %idx.addr, align 4
  %idxprom = zext i32 %1 to i64
  %arrayidx = getelementptr inbounds %class.svector.3, ptr %0, i64 %idxprom
  ret ptr %arrayidx
}

; Function Attrs: mustprogress uwtable
define hidden void @_ZN2bv6solver21find_new_diseq_axiomsERNS0_4atomEij(ptr noundef nonnull align 8 dereferenceable(640) %this, ptr noundef nonnull align 8 dereferenceable(40) %a, i32 noundef %v, i32 noundef %idx) #5 align 2 {
entry:
  %this.addr = alloca ptr, align 8
  %a.addr = alloca ptr, align 8
  %v.addr = alloca i32, align 4
  %idx.addr = alloca i32, align 4
  %l = alloca %"class.sat::literal", align 4
  %__range1 = alloca ptr, align 8
  %__begin1 = alloca %"class.bv::solver::var_pos_it", align 8
  %__end1 = alloca %"class.bv::solver::var_pos_it", align 8
  %vp = alloca %"struct.std::pair.239", align 4
  %v2 = alloca i32, align 4
  %idx2 = alloca i32, align 4
  store ptr %this, ptr %this.addr, align 8
  store ptr %a, ptr %a.addr, align 8
  store i32 %v, ptr %v.addr, align 4
  store i32 %idx, ptr %idx.addr, align 4
  %this1 = load ptr, ptr %this.addr, align 8
  %m_bits = getelementptr inbounds %"class.bv::solver", ptr %this1, i32 0, i32 10
  %0 = load i32, ptr %v.addr, align 4
  %call = call noundef nonnull align 8 dereferenceable(8) ptr @_ZN6vectorI7svectorIN3sat7literalEjELb1EjEixEj(ptr noundef nonnull align 8 dereferenceable(8) %m_bits, i32 noundef %0)
  %1 = load i32, ptr %idx.addr, align 4
  %call2 = call noundef nonnull align 4 dereferenceable(4) ptr @_ZN6vectorIN3sat7literalELb0EjEixEj(ptr noundef nonnull align 8 dereferenceable(8) %call, i32 noundef %1)
  call void @llvm.memcpy.p0.p0.i64(ptr align 4 %l, ptr align 4 %call2, i64 4, i1 false)
  call void @_ZN3sat7literal3negEv(ptr noundef nonnull align 4 dereferenceable(4) %l)
  %2 = load ptr, ptr %a.addr, align 8
  store ptr %2, ptr %__range1, align 8
  %3 = load ptr, ptr %__range1, align 8
  %call3 = call ptr @_ZNK2bv6solver4atom5beginEv(ptr noundef nonnull align 8 dereferenceable(40) %3)
  %coerce.dive = getelementptr inbounds %"class.bv::solver::var_pos_it", ptr %__begin1, i32 0, i32 0
  store ptr %call3, ptr %coerce.dive, align 8
  %4 = load ptr, ptr %__range1, align 8
  %call4 = call ptr @_ZNK2bv6solver4atom3endEv(ptr noundef nonnull align 8 dereferenceable(40) %4)
  %coerce.dive5 = getelementptr inbounds %"class.bv::solver::var_pos_it", ptr %__end1, i32 0, i32 0
  store ptr %call4, ptr %coerce.dive5, align 8
  br label %for.cond

for.cond:                                         ; preds = %for.inc, %entry
  %call6 = call noundef zeroext i1 @_ZNK2bv6solver10var_pos_itneERKS1_(ptr noundef nonnull align 8 dereferenceable(8) %__begin1, ptr noundef nonnull align 8 dereferenceable(8) %__end1)
  br i1 %call6, label %for.body, label %for.end

for.body:                                         ; preds = %for.cond
  %call7 = call i64 @_ZN2bv6solver10var_pos_itdeEv(ptr noundef nonnull align 8 dereferenceable(8) %__begin1)
  store i64 %call7, ptr %vp, align 4
  %first = getelementptr inbounds %"struct.std::pair.239", ptr %vp, i32 0, i32 0
  %5 = load i32, ptr %first, align 4
  store i32 %5, ptr %v2, align 4
  %second = getelementptr inbounds %"struct.std::pair.239", ptr %vp, i32 0, i32 1
  %6 = load i32, ptr %second, align 4
  store i32 %6, ptr %idx2, align 4
  %7 = load i32, ptr %idx.addr, align 4
  %8 = load i32, ptr %idx2, align 4
  %cmp = icmp eq i32 %7, %8
  br i1 %cmp, label %land.lhs.true, label %if.end

land.lhs.true:                                    ; preds = %for.body
  %m_bits8 = getelementptr inbounds %"class.bv::solver", ptr %this1, i32 0, i32 10
  %9 = load i32, ptr %v2, align 4
  %call9 = call noundef nonnull align 8 dereferenceable(8) ptr @_ZN6vectorI7svectorIN3sat7literalEjELb1EjEixEj(ptr noundef nonnull align 8 dereferenceable(8) %m_bits8, i32 noundef %9)
  %call10 = call noundef i32 @_ZNK6vectorIN3sat7literalELb0EjE4sizeEv(ptr noundef nonnull align 8 dereferenceable(8) %call9)
  %m_bits11 = getelementptr inbounds %"class.bv::solver", ptr %this1, i32 0, i32 10
  %10 = load i32, ptr %v.addr, align 4
  %call12 = call noundef nonnull align 8 dereferenceable(8) ptr @_ZN6vectorI7svectorIN3sat7literalEjELb1EjEixEj(ptr noundef nonnull align 8 dereferenceable(8) %m_bits11, i32 noundef %10)
  %call13 = call noundef i32 @_ZNK6vectorIN3sat7literalELb0EjE4sizeEv(ptr noundef nonnull align 8 dereferenceable(8) %call12)
  %cmp14 = icmp eq i32 %call10, %call13
  br i1 %cmp14, label %land.lhs.true15, label %if.end

land.lhs.true15:                                  ; preds = %land.lhs.true
  %m_bits16 = getelementptr inbounds %"class.bv::solver", ptr %this1, i32 0, i32 10
  %11 = load i32, ptr %v2, align 4
  %call17 = call noundef nonnull align 8 dereferenceable(8) ptr @_ZN6vectorI7svectorIN3sat7literalEjELb1EjEixEj(ptr noundef nonnull align 8 dereferenceable(8) %m_bits16, i32 noundef %11)
  %12 = load i32, ptr %idx2, align 4
  %call18 = call noundef nonnull align 4 dereferenceable(4) ptr @_ZN6vectorIN3sat7literalELb0EjEixEj(ptr noundef nonnull align 8 dereferenceable(8) %call17, i32 noundef %12)
  %call19 = call noundef zeroext i1 @_ZN3sateqERKNS_7literalES2_(ptr noundef nonnull align 4 dereferenceable(4) %call18, ptr noundef nonnull align 4 dereferenceable(4) %l)
  br i1 %call19, label %if.then, label %if.end

if.then:                                          ; preds = %land.lhs.true15
  %13 = load i32, ptr %v.addr, align 4
  %14 = load i32, ptr %v2, align 4
  %15 = load i32, ptr %idx.addr, align 4
  call void @_ZN2bv6solver18mk_new_diseq_axiomEiij(ptr noundef nonnull align 8 dereferenceable(640) %this1, i32 noundef %13, i32 noundef %14, i32 noundef %15)
  br label %if.end

if.end:                                           ; preds = %if.then, %land.lhs.true15, %land.lhs.true, %for.body
  br label %for.inc

for.inc:                                          ; preds = %if.end
  %call20 = call noundef nonnull align 8 dereferenceable(8) ptr @_ZN2bv6solver10var_pos_itppEv(ptr noundef nonnull align 8 dereferenceable(8) %__begin1)
  br label %for.cond

for.end:                                          ; preds = %for.cond
  ret void
}