; Function Attrs: mustprogress uwtable
define hidden void @_ZN2bv6solver21find_new_diseq_axiomsERNS0_4atomEij(ptr noundef nonnull align 8 dereferenceable(640) %this, ptr nocapture noundef nonnull readonly align 8 dereferenceable(40) %a, i32 noundef %v, i32 noundef %idx) local_unnamed_addr #3 align 2 {
entry:
  %m_bits = getelementptr inbounds i8, ptr %this, i64 456
  %0 = load ptr, ptr %m_bits, align 8
  %idxprom.i = zext i32 %v to i64
  %arrayidx.i = getelementptr inbounds %class.svector.3, ptr %0, i64 %idxprom.i
  %1 = load ptr, ptr %arrayidx.i, align 8
  %idxprom.i9 = zext i32 %idx to i64
  %arrayidx.i10 = getelementptr inbounds %"class.sat::literal", ptr %1, i64 %idxprom.i9
  %2 = load i32, ptr %arrayidx.i10, align 4
  %m_occs.i = getelementptr inbounds i8, ptr %a, i64 16
  %__begin1.sroa.0.029 = load ptr, ptr %m_occs.i, align 8
  %cmp.i.i.not30 = icmp eq ptr %__begin1.sroa.0.029, null
  br i1 %cmp.i.i.not30, label %for.end, label %for.body

for.body:                                         ; preds = %entry, %for.inc
  %__begin1.sroa.0.031 = phi ptr [ %__begin1.sroa.0.0, %for.inc ], [ %__begin1.sroa.0.029, %entry ]
  %retval.sroa.0.0.copyload.i = load i64, ptr %__begin1.sroa.0.031, align 8
  %vp.sroa.0.0.extract.trunc = trunc i64 %retval.sroa.0.0.copyload.i to i32
  %vp.sroa.2.0.extract.shift = lshr i64 %retval.sroa.0.0.copyload.i, 32
  %vp.sroa.2.0.extract.trunc = trunc i64 %vp.sroa.2.0.extract.shift to i32
  %cmp = icmp eq i32 %vp.sroa.2.0.extract.trunc, %idx
  br i1 %cmp, label %land.lhs.true, label %for.inc

land.lhs.true:                                    ; preds = %for.body
  %3 = load ptr, ptr %m_bits, align 8
  %idxprom.i11 = and i64 %retval.sroa.0.0.copyload.i, 4294967295
  %arrayidx.i12 = getelementptr inbounds %class.svector.3, ptr %3, i64 %idxprom.i11
  %4 = load ptr, ptr %arrayidx.i12, align 8
  %cmp.i = icmp eq ptr %4, null
  br i1 %cmp.i, label %_ZNK6vectorIN3sat7literalELb0EjE4sizeEv.exit, label %if.end.i

if.end.i:                                         ; preds = %land.lhs.true
  %arrayidx.i13 = getelementptr inbounds i8, ptr %4, i64 -4
  %5 = load i32, ptr %arrayidx.i13, align 4
  br label %_ZNK6vectorIN3sat7literalELb0EjE4sizeEv.exit

_ZNK6vectorIN3sat7literalELb0EjE4sizeEv.exit:     ; preds = %land.lhs.true, %if.end.i
  %retval.0.i = phi i32 [ %5, %if.end.i ], [ 0, %land.lhs.true ]
  %arrayidx.i15 = getelementptr inbounds %class.svector.3, ptr %3, i64 %idxprom.i
  %6 = load ptr, ptr %arrayidx.i15, align 8
  %cmp.i16 = icmp eq ptr %6, null
  br i1 %cmp.i16, label %_ZNK6vectorIN3sat7literalELb0EjE4sizeEv.exit20, label %if.end.i17

if.end.i17:                                       ; preds = %_ZNK6vectorIN3sat7literalELb0EjE4sizeEv.exit
  %arrayidx.i18 = getelementptr inbounds i8, ptr %6, i64 -4
  %7 = load i32, ptr %arrayidx.i18, align 4
  br label %_ZNK6vectorIN3sat7literalELb0EjE4sizeEv.exit20

_ZNK6vectorIN3sat7literalELb0EjE4sizeEv.exit20:   ; preds = %_ZNK6vectorIN3sat7literalELb0EjE4sizeEv.exit, %if.end.i17
  %retval.0.i19 = phi i32 [ %7, %if.end.i17 ], [ 0, %_ZNK6vectorIN3sat7literalELb0EjE4sizeEv.exit ]
  %cmp14 = icmp eq i32 %retval.0.i, %retval.0.i19
  br i1 %cmp14, label %land.lhs.true15, label %for.inc

land.lhs.true15:                                  ; preds = %_ZNK6vectorIN3sat7literalELb0EjE4sizeEv.exit20
  %arrayidx.i24 = getelementptr inbounds %"class.sat::literal", ptr %4, i64 %vp.sroa.2.0.extract.shift
  %8 = load i32, ptr %arrayidx.i24, align 4
  %9 = xor i32 %8, %2
  %cmp.i25 = icmp eq i32 %9, 1
  br i1 %cmp.i25, label %if.then, label %for.inc

if.then:                                          ; preds = %land.lhs.true15
  tail call void @_ZN2bv6solver18mk_new_diseq_axiomEiij(ptr noundef nonnull align 8 dereferenceable(640) %this, i32 noundef %v, i32 noundef %vp.sroa.0.0.extract.trunc, i32 poison)
  br label %for.inc

for.inc:                                          ; preds = %for.body, %_ZNK6vectorIN3sat7literalELb0EjE4sizeEv.exit20, %land.lhs.true15, %if.then
  %m_next.i = getelementptr inbounds i8, ptr %__begin1.sroa.0.031, i64 8
  %__begin1.sroa.0.0 = load ptr, ptr %m_next.i, align 8
  %cmp.i.i.not = icmp eq ptr %__begin1.sroa.0.0, null
  br i1 %cmp.i.i.not, label %for.end, label %for.body

for.end:                                          ; preds = %for.inc, %entry
  ret void
}